; Function Attrs: mustprogress uwtable
define void @_ZN7httplib10ClientImpl3PutERKNSt7__cxx1112basic_stringIcSt11char_traitsIcESaIcEEERKSt8multimapIS6_S6_NS_6detail2ciESaISt4pairIS7_S6_EEES8_S8_(ptr noalias sret(%"class.httplib::Result") align 8 %agg.result, ptr noundef nonnull align 8 dereferenceable(1000) %this, ptr noundef nonnull align 8 dereferenceable(32) %path, ptr noundef nonnull align 8 dereferenceable(48) %headers, ptr noundef nonnull align 8 dereferenceable(32) %body, ptr noundef nonnull align 8 dereferenceable(32) %content_type) local_unnamed_addr #5 align 2 personality ptr @__gxx_personality_v0 {
entry:
  %ref.tmp = alloca %"class.std::__cxx11::basic_string", align 8
  %ref.tmp2 = alloca %"class.std::allocator", align 1
  %agg.tmp = alloca %"class.std::function.29", align 8
  %agg.tmp4 = alloca %"class.std::function.118", align 8
  call void @_ZNSaIcEC1Ev(ptr noundef nonnull align 1 dereferenceable(1) %ref.tmp2) #37
  %call.i3 = invoke noundef ptr @_ZNSt7__cxx1112basic_stringIcSt11char_traitsIcESaIcEE13_M_local_dataEv(ptr noundef nonnull align 8 dereferenceable(32) %ref.tmp)
          to label %call.i.noexc unwind label %lpad

call.i.noexc:                                     ; preds = %entry
  invoke void @_ZNSt7__cxx1112basic_stringIcSt11char_traitsIcESaIcEE12_Alloc_hiderC1EPcRKS3_(ptr noundef nonnull align 8 dereferenceable(8) %ref.tmp, ptr noundef %call.i3, ptr noundef nonnull align 1 dereferenceable(1) %ref.tmp2)
          to label %.noexc unwind label %lpad

.noexc:                                           ; preds = %call.i.noexc
  invoke void @_ZNSt7__cxx1112basic_stringIcSt11char_traitsIcESaIcEE12_M_constructIPKcEEvT_S8_St20forward_iterator_tag(ptr noundef nonnull align 8 dereferenceable(32) %ref.tmp, ptr noundef nonnull @.str.77, ptr noundef nonnull getelementptr inbounds ([4 x i8], ptr @.str.77, i64 0, i64 3))
          to label %invoke.cont unwind label %lpad.i

lpad.i:                                           ; preds = %.noexc
  %0 = landingpad { ptr, i32 }
          cleanup
  call void @_ZNSaIcED2Ev(ptr noundef nonnull align 1 dereferenceable(1) %ref.tmp) #37
  br label %ehcleanup

invoke.cont:                                      ; preds = %.noexc
  %call = call noundef ptr @_ZNKSt7__cxx1112basic_stringIcSt11char_traitsIcESaIcEE4dataEv(ptr noundef nonnull align 8 dereferenceable(32) %body) #37
  %call3 = call noundef i64 @_ZNKSt7__cxx1112basic_stringIcSt11char_traitsIcESaIcEE4sizeEv(ptr noundef nonnull align 8 dereferenceable(32) %body) #37
  call void @llvm.memset.p0.i64(ptr noundef nonnull align 8 dereferenceable(32) %agg.tmp, i8 0, i64 32, i1 false)
  call void @llvm.memset.p0.i64(ptr noundef nonnull align 8 dereferenceable(32) %agg.tmp4, i8 0, i64 32, i1 false)
  invoke void @_ZN7httplib10ClientImpl26send_with_content_providerERKNSt7__cxx1112basic_stringIcSt11char_traitsIcESaIcEEES8_RKSt8multimapIS6_S6_NS_6detail2ciESaISt4pairIS7_S6_EEEPKcmSt8functionIFbmmRNS_8DataSinkEEESK_IFbmSM_EES8_(ptr sret(%"class.httplib::Result") align 8 %agg.result, ptr noundef nonnull align 8 dereferenceable(1000) %this, ptr noundef nonnull align 8 dereferenceable(32) %ref.tmp, ptr noundef nonnull align 8 dereferenceable(32) %path, ptr noundef nonnull align 8 dereferenceable(48) %headers, ptr noundef %call, i64 noundef %call3, ptr noundef nonnull %agg.tmp, ptr noundef nonnull %agg.tmp4, ptr noundef nonnull align 8 dereferenceable(32) %content_type)
          to label %invoke.cont6 unwind label %lpad5

invoke.cont6:                                     ; preds = %invoke.cont
  %_M_manager.i.i = getelementptr inbounds i8, ptr %agg.tmp4, i64 16
  %1 = load ptr, ptr %_M_manager.i.i, align 8
  %tobool.not.i.i = icmp eq ptr %1, null
  br i1 %tobool.not.i.i, label %_ZNSt8functionIFbmRN7httplib8DataSinkEEED2Ev.exit, label %if.then.i.i

if.then.i.i:                                      ; preds = %invoke.cont6
  %call.i.i4 = invoke noundef zeroext i1 %1(ptr noundef nonnull align 8 dereferenceable(16) %agg.tmp4, ptr noundef nonnull align 8 dereferenceable(16) %agg.tmp4, i32 noundef 3)
          to label %_ZNSt8functionIFbmRN7httplib8DataSinkEEED2Ev.exit unwind label %terminate.lpad.i.i

terminate.lpad.i.i:                               ; preds = %if.then.i.i
  %2 = landingpad { ptr, i32 }
          catch ptr null
  %3 = extractvalue { ptr, i32 } %2, 0
  call void @__clang_call_terminate(ptr %3) #40
  unreachable

_ZNSt8functionIFbmRN7httplib8DataSinkEEED2Ev.exit: ; preds = %invoke.cont6, %if.then.i.i
  %_M_manager.i.i5 = getelementptr inbounds i8, ptr %agg.tmp, i64 16
  %4 = load ptr, ptr %_M_manager.i.i5, align 8
  %tobool.not.i.i6 = icmp eq ptr %4, null
  br i1 %tobool.not.i.i6, label %_ZNSt8functionIFbmmRN7httplib8DataSinkEEED2Ev.exit, label %if.then.i.i7

if.then.i.i7:                                     ; preds = %_ZNSt8functionIFbmRN7httplib8DataSinkEEED2Ev.exit
  %call.i.i8 = invoke noundef zeroext i1 %4(ptr noundef nonnull align 8 dereferenceable(16) %agg.tmp, ptr noundef nonnull align 8 dereferenceable(16) %agg.tmp, i32 noundef 3)
          to label %_ZNSt8functionIFbmmRN7httplib8DataSinkEEED2Ev.exit unwind label %terminate.lpad.i.i9

terminate.lpad.i.i9:                              ; preds = %if.then.i.i7
  %5 = landingpad { ptr, i32 }
          catch ptr null
  %6 = extractvalue { ptr, i32 } %5, 0
  call void @__clang_call_terminate(ptr %6) #40
  unreachable

_ZNSt8functionIFbmmRN7httplib8DataSinkEEED2Ev.exit: ; preds = %_ZNSt8functionIFbmRN7httplib8DataSinkEEED2Ev.exit, %if.then.i.i7
  call void @_ZNSt7__cxx1112basic_stringIcSt11char_traitsIcESaIcEED1Ev(ptr noundef nonnull align 8 dereferenceable(32) %ref.tmp) #37
  call void @_ZNSaIcED1Ev(ptr noundef nonnull align 1 dereferenceable(1) %ref.tmp2) #37
  ret void

lpad:                                             ; preds = %call.i.noexc, %entry
  %7 = landingpad { ptr, i32 }
          cleanup
  br label %ehcleanup

lpad5:                                            ; preds = %invoke.cont
  %8 = landingpad { ptr, i32 }
          cleanup
  %_M_manager.i.i10 = getelementptr inbounds i8, ptr %agg.tmp4, i64 16
  %9 = load ptr, ptr %_M_manager.i.i10, align 8
  %tobool.not.i.i11 = icmp eq ptr %9, null
  br i1 %tobool.not.i.i11, label %_ZNSt8functionIFbmRN7httplib8DataSinkEEED2Ev.exit15, label %if.then.i.i12

if.then.i.i12:                                    ; preds = %lpad5
  %call.i.i13 = invoke noundef zeroext i1 %9(ptr noundef nonnull align 8 dereferenceable(16) %agg.tmp4, ptr noundef nonnull align 8 dereferenceable(16) %agg.tmp4, i32 noundef 3)
          to label %_ZNSt8functionIFbmRN7httplib8DataSinkEEED2Ev.exit15 unwind label %terminate.lpad.i.i14

terminate.lpad.i.i14:                             ; preds = %if.then.i.i12
  %10 = landingpad { ptr, i32 }
          catch ptr null
  %11 = extractvalue { ptr, i32 } %10, 0
  call void @__clang_call_terminate(ptr %11) #40
  unreachable

_ZNSt8functionIFbmRN7httplib8DataSinkEEED2Ev.exit15: ; preds = %lpad5, %if.then.i.i12
  %_M_manager.i.i16 = getelementptr inbounds i8, ptr %agg.tmp, i64 16
  %12 = load ptr, ptr %_M_manager.i.i16, align 8
  %tobool.not.i.i17 = icmp eq ptr %12, null
  br i1 %tobool.not.i.i17, label %_ZNSt8functionIFbmmRN7httplib8DataSinkEEED2Ev.exit21, label %if.then.i.i18

if.then.i.i18:                                    ; preds = %_ZNSt8functionIFbmRN7httplib8DataSinkEEED2Ev.exit15
  %call.i.i19 = invoke noundef zeroext i1 %12(ptr noundef nonnull align 8 dereferenceable(16) %agg.tmp, ptr noundef nonnull align 8 dereferenceable(16) %agg.tmp, i32 noundef 3)
          to label %_ZNSt8functionIFbmmRN7httplib8DataSinkEEED2Ev.exit21 unwind label %terminate.lpad.i.i20

terminate.lpad.i.i20:                             ; preds = %if.then.i.i18
  %13 = landingpad { ptr, i32 }
          catch ptr null
  %14 = extractvalue { ptr, i32 } %13, 0
  call void @__clang_call_terminate(ptr %14) #40
  unreachable

_ZNSt8functionIFbmmRN7httplib8DataSinkEEED2Ev.exit21: ; preds = %_ZNSt8functionIFbmRN7httplib8DataSinkEEED2Ev.exit15, %if.then.i.i18
  call void @_ZNSt7__cxx1112basic_stringIcSt11char_traitsIcESaIcEED1Ev(ptr noundef nonnull align 8 dereferenceable(32) %ref.tmp) #37
  br label %ehcleanup

ehcleanup:                                        ; preds = %lpad, %lpad.i, %_ZNSt8functionIFbmmRN7httplib8DataSinkEEED2Ev.exit21
  %.pn = phi { ptr, i32 } [ %8, %_ZNSt8functionIFbmmRN7httplib8DataSinkEEED2Ev.exit21 ], [ %7, %lpad ], [ %0, %lpad.i ]
  call void @_ZNSaIcED1Ev(ptr noundef nonnull align 1 dereferenceable(1) %ref.tmp2) #37
  resume { ptr, i32 } %.pn
}